target datalayout = "e-m:e-p270:32:32-p271:32:32-p272:64:64-i64:64-i128:128-f80:128-n8:16:32:64-S128"
target triple = "x86_64-unknown-linux-gnu"

%"class.std::__cxx11::basic_string" = type { %"struct.std::__cxx11::basic_string<char>::_Alloc_hider", i64, %union.anon }
%"struct.std::__cxx11::basic_string<char>::_Alloc_hider" = type { ptr }
%union.anon = type { i64, [8 x i8] }
%"class.rocksdb::BlockCacheFile" = type { %"struct.rocksdb::LRUElement", %"class.rocksdb::port::RWMutex", ptr, %"class.std::__cxx11::basic_string", i32, %"class.std::__cxx11::list" }
%"struct.rocksdb::LRUElement" = type { ptr, ptr, ptr, %"struct.std::atomic" }
%"struct.std::atomic" = type { %"struct.std::__atomic_base" }
%"struct.std::__atomic_base" = type { i64 }
%"class.rocksdb::port::RWMutex" = type { %union.pthread_rwlock_t }
%union.pthread_rwlock_t = type { %struct.__pthread_rwlock_arch_t }
%struct.__pthread_rwlock_arch_t = type { i32, i32, i32, i32, i32, i32, i32, i32, i8, [7 x i8], i64, i32 }
%"class.std::__cxx11::list" = type { %"class.std::__cxx11::_List_base" }
%"class.std::__cxx11::_List_base" = type { %"struct.std::__cxx11::_List_base<rocksdb::BlockInfo *, std::allocator<rocksdb::BlockInfo *>>::_List_impl" }
%"struct.std::__cxx11::_List_base<rocksdb::BlockInfo *, std::allocator<rocksdb::BlockInfo *>>::_List_impl" = type { %"struct.std::__detail::_List_node_header" }
%"struct.std::__detail::_List_node_header" = type { %"struct.std::__detail::_List_node_base", i64 }
%"struct.std::__detail::_List_node_base" = type { ptr, ptr }
%"struct.rocksdb::CacheRecordHeader" = type { i32, i32, i32, i32 }
%"struct.rocksdb::CacheRecord" = type { %"struct.rocksdb::CacheRecordHeader", %"class.rocksdb::Slice", %"class.rocksdb::Slice" }
%"class.rocksdb::Slice" = type { ptr, i64 }
%"class.std::__shared_count" = type { ptr }
%"class.rocksdb::RandomAccessCacheFile" = type { %"class.rocksdb::BlockCacheFile", %"class.std::unique_ptr.29", %"class.std::shared_ptr.37" }
%"class.std::unique_ptr.29" = type { %"struct.std::__uniq_ptr_data.30" }
%"struct.std::__uniq_ptr_data.30" = type { %"class.std::__uniq_ptr_impl.31" }
%"class.std::__uniq_ptr_impl.31" = type { %"class.std::tuple.32" }
%"class.std::tuple.32" = type { %"struct.std::_Tuple_impl.33" }
%"struct.std::_Tuple_impl.33" = type { %"struct.std::_Head_base.36" }
%"struct.std::_Head_base.36" = type { ptr }
%"class.std::shared_ptr.37" = type { %"class.std::__shared_ptr.38" }
%"class.std::__shared_ptr.38" = type { ptr, %"class.std::__shared_count" }
%"struct.rocksdb::LogicalBlockAddress" = type { i32, i32, i32 }

@.str.11 = private unnamed_addr constant [48 x i8] c"Error de-serializing record from file %s off %d\00", align 1
@.str.26 = private unnamed_addr constant [1 x i8] zeroinitializer, align 1

; Function Attrs: mustprogress nounwind uwtable
define linkonce_odr void @_ZN7rocksdb5SliceC2Ev(ptr noundef nonnull align 8 dereferenceable(16) %this) unnamed_addr #2 comdat align 2 {
entry:
  %this.addr = alloca ptr, align 8
  store ptr %this, ptr %this.addr, align 8
  %this1 = load ptr, ptr %this.addr, align 8
  %data_ = getelementptr inbounds %"class.rocksdb::Slice", ptr %this1, i32 0, i32 0
  store ptr @.str.26, ptr %data_, align 8
  %size_ = getelementptr inbounds %"class.rocksdb::Slice", ptr %this1, i32 0, i32 1
  store i64 0, ptr %size_, align 8
  ret void
}

; Function Attrs: mustprogress nounwind uwtable
define linkonce_odr void @_ZN7rocksdb17CacheRecordHeaderC2Ev(ptr noundef nonnull align 4 dereferenceable(16) %this) unnamed_addr #2 comdat align 2 {
entry:
  %this.addr = alloca ptr, align 8
  store ptr %this, ptr %this.addr, align 8
  %this1 = load ptr, ptr %this.addr, align 8
  %magic_ = getelementptr inbounds %"struct.rocksdb::CacheRecordHeader", ptr %this1, i32 0, i32 0
  store i32 0, ptr %magic_, align 4
  %crc_ = getelementptr inbounds %"struct.rocksdb::CacheRecordHeader", ptr %this1, i32 0, i32 1
  store i32 0, ptr %crc_, align 4
  %key_size_ = getelementptr inbounds %"struct.rocksdb::CacheRecordHeader", ptr %this1, i32 0, i32 2
  store i32 0, ptr %key_size_, align 4
  %val_size_ = getelementptr inbounds %"struct.rocksdb::CacheRecordHeader", ptr %this1, i32 0, i32 3
  store i32 0, ptr %val_size_, align 4
  ret void
}

; Function Attrs: mustprogress uwtable
define linkonce_odr void @_ZN7rocksdb11CacheRecordC2Ev(ptr noundef nonnull align 8 dereferenceable(48) %this) unnamed_addr #0 comdat align 2 {
entry:
  %this.addr = alloca ptr, align 8
  store ptr %this, ptr %this.addr, align 8
  %this1 = load ptr, ptr %this.addr, align 8
  %hdr_ = getelementptr inbounds %"struct.rocksdb::CacheRecord", ptr %this1, i32 0, i32 0
  call void @_ZN7rocksdb17CacheRecordHeaderC2Ev(ptr noundef nonnull align 4 dereferenceable(16) %hdr_)
  %key_ = getelementptr inbounds %"struct.rocksdb::CacheRecord", ptr %this1, i32 0, i32 1
  call void @_ZN7rocksdb5SliceC2Ev(ptr noundef nonnull align 8 dereferenceable(16) %key_)
  %val_ = getelementptr inbounds %"struct.rocksdb::CacheRecord", ptr %this1, i32 0, i32 2
  call void @_ZN7rocksdb5SliceC2Ev(ptr noundef nonnull align 8 dereferenceable(16) %val_)
  ret void
}

; Function Attrs: mustprogress nounwind uwtable
define linkonce_odr void @_ZN7rocksdb5SliceC2EPKcm(ptr noundef nonnull align 8 dereferenceable(16) %this, ptr noundef %d, i64 noundef %n) unnamed_addr #2 comdat align 2 {
entry:
  %this.addr = alloca ptr, align 8
  %d.addr = alloca ptr, align 8
  %n.addr = alloca i64, align 8
  store ptr %this, ptr %this.addr, align 8
  store ptr %d, ptr %d.addr, align 8
  store i64 %n, ptr %n.addr, align 8
  %this1 = load ptr, ptr %this.addr, align 8
  %data_ = getelementptr inbounds %"class.rocksdb::Slice", ptr %this1, i32 0, i32 0
  %0 = load ptr, ptr %d.addr, align 8
  store ptr %0, ptr %data_, align 8
  %size_ = getelementptr inbounds %"class.rocksdb::Slice", ptr %this1, i32 0, i32 1
  %1 = load i64, ptr %n.addr, align 8
  store i64 %1, ptr %size_, align 8
  ret void
}

; Function Attrs: mustprogress uwtable
define noundef zeroext i1 @_ZN7rocksdb21RandomAccessCacheFile8ParseRecERKNS_19LogicalBlockAddressEPNS_5SliceES5_Pc(ptr noundef nonnull align 8 dereferenceable(184) %this, ptr noundef nonnull align 4 dereferenceable(12) %lba, ptr noundef %key, ptr noundef %val, ptr noundef %scratch) #0 align 2 personality ptr @__gxx_personality_v0 {
entry:
  %retval = alloca i1, align 1
  %this.addr = alloca ptr, align 8
  %lba.addr = alloca ptr, align 8
  %key.addr = alloca ptr, align 8
  %val.addr = alloca ptr, align 8
  %scratch.addr = alloca ptr, align 8
  %data = alloca %"class.rocksdb::Slice", align 8
  %rec = alloca %"struct.rocksdb::CacheRecord", align 8
  %ref.tmp = alloca %"class.std::__cxx11::basic_string", align 8
  %exn.slot = alloca ptr, align 8
  %ehselector.slot = alloca i32, align 4
  %ref.tmp3 = alloca %"class.rocksdb::Slice", align 8
  %ref.tmp4 = alloca %"class.rocksdb::Slice", align 8
  store ptr %this, ptr %this.addr, align 8
  store ptr %lba, ptr %lba.addr, align 8
  store ptr %key, ptr %key.addr, align 8
  store ptr %val, ptr %val.addr, align 8
  store ptr %scratch, ptr %scratch.addr, align 8
  %this1 = load ptr, ptr %this.addr, align 8
  %0 = load ptr, ptr %scratch.addr, align 8
  %1 = load ptr, ptr %lba.addr, align 8
  %size_ = getelementptr inbounds %"struct.rocksdb::LogicalBlockAddress", ptr %1, i32 0, i32 2
  %2 = load i32, ptr %size_, align 4
  %conv = zext i32 %2 to i64
  call void @_ZN7rocksdb5SliceC2EPKcm(ptr noundef nonnull align 8 dereferenceable(16) %data, ptr noundef %0, i64 noundef %conv)
  call void @_ZN7rocksdb11CacheRecordC2Ev(ptr noundef nonnull align 8 dereferenceable(48) %rec)
  %call = call noundef zeroext i1 @_ZN7rocksdb11CacheRecord11DeserializeERKNS_5SliceE(ptr noundef nonnull align 8 dereferenceable(48) %rec, ptr noundef nonnull align 8 dereferenceable(16) %data)
  br i1 %call, label %if.end, label %if.then

if.then:                                          ; preds = %entry
  %log_ = getelementptr inbounds %"class.rocksdb::RandomAccessCacheFile", ptr %this1, i32 0, i32 2
  call void @_ZNK7rocksdb14BlockCacheFile4PathB5cxx11Ev(ptr sret(%"class.std::__cxx11::basic_string") align 8 %ref.tmp, ptr noundef nonnull align 8 dereferenceable(160) %this1)
  %call2 = call noundef ptr @_ZNKSt7__cxx1112basic_stringIcSt11char_traitsIcESaIcEE5c_strEv(ptr noundef nonnull align 8 dereferenceable(32) %ref.tmp) #12
  %3 = load ptr, ptr %lba.addr, align 8
  %off_ = getelementptr inbounds %"struct.rocksdb::LogicalBlockAddress", ptr %3, i32 0, i32 1
  %4 = load i32, ptr %off_, align 4
  invoke void (ptr, ptr, ...) @_ZN7rocksdb5ErrorERKSt10shared_ptrINS_6LoggerEEPKcz(ptr noundef nonnull align 8 dereferenceable(16) %log_, ptr noundef @.str.11, ptr noundef %call2, i32 noundef %4)
          to label %invoke.cont unwind label %lpad

invoke.cont:                                      ; preds = %if.then
  call void @_ZNSt7__cxx1112basic_stringIcSt11char_traitsIcESaIcEED1Ev(ptr noundef nonnull align 8 dereferenceable(32) %ref.tmp) #12
  store i1 false, ptr %retval, align 1
  br label %return

lpad:                                             ; preds = %if.then
  %5 = landingpad { ptr, i32 }
          cleanup
  %6 = extractvalue { ptr, i32 } %5, 0
  store ptr %6, ptr %exn.slot, align 8
  %7 = extractvalue { ptr, i32 } %5, 1
  store i32 %7, ptr %ehselector.slot, align 4
  call void @_ZNSt7__cxx1112basic_stringIcSt11char_traitsIcESaIcEED1Ev(ptr noundef nonnull align 8 dereferenceable(32) %ref.tmp) #12
  br label %eh.resume

if.end:                                           ; preds = %entry
  %key_ = getelementptr inbounds %"struct.rocksdb::CacheRecord", ptr %rec, i32 0, i32 1
  call void @llvm.memcpy.p0.p0.i64(ptr align 8 %ref.tmp3, ptr align 8 %key_, i64 16, i1 false)
  %8 = load ptr, ptr %key.addr, align 8
  call void @llvm.memcpy.p0.p0.i64(ptr align 8 %8, ptr align 8 %ref.tmp3, i64 16, i1 false)
  %val_ = getelementptr inbounds %"struct.rocksdb::CacheRecord", ptr %rec, i32 0, i32 2
  call void @llvm.memcpy.p0.p0.i64(ptr align 8 %ref.tmp4, ptr align 8 %val_, i64 16, i1 false)
  %9 = load ptr, ptr %val.addr, align 8
  call void @llvm.memcpy.p0.p0.i64(ptr align 8 %9, ptr align 8 %ref.tmp4, i64 16, i1 false)
  store i1 true, ptr %retval, align 1
  br label %return

return:                                           ; preds = %if.end, %invoke.cont
  %10 = load i1, ptr %retval, align 1
  ret i1 %10

eh.resume:                                        ; preds = %lpad
  %exn = load ptr, ptr %exn.slot, align 8
  %sel = load i32, ptr %ehselector.slot, align 4
  %lpad.val = insertvalue { ptr, i32 } poison, ptr %exn, 0
  %lpad.val5 = insertvalue { ptr, i32 } %lpad.val, i32 %sel, 1
  resume { ptr, i32 } %lpad.val5
}