; Function Attrs: mustprogress uwtable
define noundef zeroext i1 @_ZN7rocksdb21RandomAccessCacheFile8ParseRecERKNS_19LogicalBlockAddressEPNS_5SliceES5_Pc(ptr noundef nonnull align 8 dereferenceable(184) %this, ptr nocapture noundef nonnull readonly align 4 dereferenceable(12) %lba, ptr nocapture noundef writeonly %key, ptr nocapture noundef writeonly %val, ptr noundef %scratch) local_unnamed_addr #0 align 2 personality ptr @__gxx_personality_v0 {
entry:
  %data = alloca %"class.rocksdb::Slice", align 8
  %rec = alloca %"struct.rocksdb::CacheRecord", align 8
  %ref.tmp = alloca %"class.std::__cxx11::basic_string", align 8
  %size_ = getelementptr inbounds i8, ptr %lba, i64 8
  %0 = load i32, ptr %size_, align 4
  %conv = zext i32 %0 to i64
  store ptr %scratch, ptr %data, align 8
  %size_.i = getelementptr inbounds i8, ptr %data, i64 8
  store i64 %conv, ptr %size_.i, align 8
  call void @llvm.memset.p0.i64(ptr noundef nonnull align 8 dereferenceable(16) %rec, i8 0, i64 16, i1 false)
  %key_.i = getelementptr inbounds i8, ptr %rec, i64 16
  store ptr @.str.26, ptr %key_.i, align 8
  %size_.i.i = getelementptr inbounds i8, ptr %rec, i64 24
  store i64 0, ptr %size_.i.i, align 8
  %val_.i = getelementptr inbounds i8, ptr %rec, i64 32
  store ptr @.str.26, ptr %val_.i, align 8
  %size_.i1.i = getelementptr inbounds i8, ptr %rec, i64 40
  store i64 0, ptr %size_.i1.i, align 8
  %call = call noundef zeroext i1 @_ZN7rocksdb11CacheRecord11DeserializeERKNS_5SliceE(ptr noundef nonnull align 8 dereferenceable(48) %rec, ptr noundef nonnull align 8 dereferenceable(16) %data)
  br i1 %call, label %if.end, label %if.then

if.then:                                          ; preds = %entry
  %log_ = getelementptr inbounds i8, ptr %this, i64 168
  call void @_ZNK7rocksdb14BlockCacheFile4PathB5cxx11Ev(ptr nonnull sret(%"class.std::__cxx11::basic_string") align 8 %ref.tmp, ptr noundef nonnull align 8 dereferenceable(160) %this)
  %call2 = call noundef ptr @_ZNKSt7__cxx1112basic_stringIcSt11char_traitsIcESaIcEE5c_strEv(ptr noundef nonnull align 8 dereferenceable(32) %ref.tmp) #15
  %off_ = getelementptr inbounds i8, ptr %lba, i64 4
  %1 = load i32, ptr %off_, align 4
  invoke void (ptr, ptr, ...) @_ZN7rocksdb5ErrorERKSt10shared_ptrINS_6LoggerEEPKcz(ptr noundef nonnull align 8 dereferenceable(16) %log_, ptr noundef nonnull @.str.11, ptr noundef %call2, i32 noundef %1)
          to label %invoke.cont unwind label %lpad

invoke.cont:                                      ; preds = %if.then
  call void @_ZNSt7__cxx1112basic_stringIcSt11char_traitsIcESaIcEED1Ev(ptr noundef nonnull align 8 dereferenceable(32) %ref.tmp) #15
  br label %return

lpad:                                             ; preds = %if.then
  %2 = landingpad { ptr, i32 }
          cleanup
  call void @_ZNSt7__cxx1112basic_stringIcSt11char_traitsIcESaIcEED1Ev(ptr noundef nonnull align 8 dereferenceable(32) %ref.tmp) #15
  resume { ptr, i32 } %2

if.end:                                           ; preds = %entry
  call void @llvm.memcpy.p0.p0.i64(ptr noundef nonnull align 8 dereferenceable(16) %key, ptr noundef nonnull align 8 dereferenceable(16) %key_.i, i64 16, i1 false)
  call void @llvm.memcpy.p0.p0.i64(ptr noundef nonnull align 8 dereferenceable(16) %val, ptr noundef nonnull align 8 dereferenceable(16) %val_.i, i64 16, i1 false)
  br label %return

return:                                           ; preds = %if.end, %invoke.cont
  ret i1 %call
}